; Function Attrs: nofree norecurse nosync nounwind memory(argmem: readwrite) uwtable
define internal fastcc range(i64 -46, 1) i64 @FSE_buildDTable(ptr noundef captures(none) %0, ptr noundef nonnull readonly captures(none) %1, i32 noundef %2, i32 noundef %3) unnamed_addr #0 {
  %5 = alloca [256 x i16], align 16
  %6 = getelementptr inbounds nuw i8, ptr %0, i64 4
  %7 = shl nuw i32 1, %3
  %8 = add i32 %7, -1
  %9 = lshr i32 %7, 1
  %10 = lshr i32 %7, 3
  %11 = add nuw nsw i32 %10, 3
  %12 = add nuw nsw i32 %11, %9
  call void @llvm.lifetime.start.p0(i64 512, ptr nonnull %5) #22
  %13 = icmp ugt i32 %2, 255
  br i1 %13, label %67, label %14

14:                                               ; preds = %4
  %15 = icmp ugt i32 %3, 12
  br i1 %15, label %67, label %16

16:                                               ; preds = %14
  %17 = shl nuw nsw i32 %2, 2
  %18 = add nuw nsw i32 %17, 4
  %19 = zext nneg i32 %18 to i64
  tail call void @llvm.memset.p0.i64(ptr noundef nonnull align 2 dereferenceable(1) %6, i8 0, i64 %19, i1 false)
  %sext = shl nuw nsw i32 32768, %3
  %20 = lshr exact i32 %sext, 16
  %21 = add nuw nsw i32 %2, 1
  %wide.trip.count = zext nneg i32 %21 to i64
  br label %22

22:                                               ; preds = %16, %33
  %indvars.iv = phi i64 [ 0, %16 ], [ %indvars.iv.next, %33 ]
  %.06986 = phi i16 [ 1, %16 ], [ %.271, %33 ]
  %.07285 = phi i32 [ %8, %16 ], [ %.173, %33 ]
  %23 = getelementptr inbounds nuw i16, ptr %1, i64 %indvars.iv
  %24 = load i16, ptr %23, align 2, !tbaa !58
  %25 = icmp eq i16 %24, -1
  br i1 %25, label %26, label %31

26:                                               ; preds = %22
  %27 = trunc i64 %indvars.iv to i8
  %28 = add i32 %.07285, -1
  %29 = zext i32 %.07285 to i64
  %.idx81 = shl nuw nsw i64 %29, 2
  %.offs82 = or disjoint i64 %.idx81, 2
  %30 = getelementptr inbounds nuw i8, ptr %6, i64 %.offs82
  store i8 %27, ptr %30, align 2, !tbaa !55
  br label %33

31:                                               ; preds = %22
  %32 = sext i16 %24 to i32
  %.not80 = icmp sgt i32 %20, %32
  %spec.select = select i1 %.not80, i16 %.06986, i16 0
  br label %33

33:                                               ; preds = %26, %31
  %.sink = phi i16 [ 1, %26 ], [ %24, %31 ]
  %.173 = phi i32 [ %28, %26 ], [ %.07285, %31 ]
  %.271 = phi i16 [ %.06986, %26 ], [ %spec.select, %31 ]
  %34 = getelementptr inbounds nuw [256 x i16], ptr %5, i64 0, i64 %indvars.iv
  store i16 %.sink, ptr %34, align 2, !tbaa !58
  %indvars.iv.next = add nuw nsw i64 %indvars.iv, 1
  %exitcond.not = icmp eq i64 %indvars.iv.next, %wide.trip.count
  br i1 %exitcond.not, label %.preheader83, label %22, !llvm.loop !93

.preheader83:                                     ; preds = %33, %._crit_edge
  %indvars.iv94 = phi i64 [ %indvars.iv.next95, %._crit_edge ], [ 0, %33 ]
  %.06491 = phi i32 [ %.1.lcssa, %._crit_edge ], [ 0, %33 ]
  %35 = getelementptr inbounds nuw i16, ptr %1, i64 %indvars.iv94
  %36 = load i16, ptr %35, align 2, !tbaa !58
  %37 = sext i16 %36 to i32
  %38 = icmp sgt i16 %36, 0
  br i1 %38, label %.lr.ph, label %._crit_edge

.lr.ph:                                           ; preds = %.preheader83
  %39 = trunc i64 %indvars.iv94 to i8
  br label %40

40:                                               ; preds = %.lr.ph, %45
  %.189 = phi i32 [ %.06491, %.lr.ph ], [ %.2, %45 ]
  %.06688 = phi i32 [ 0, %.lr.ph ], [ %46, %45 ]
  %41 = zext i32 %.189 to i64
  %.idx = shl nuw nsw i64 %41, 2
  %.offs = or disjoint i64 %.idx, 2
  %42 = getelementptr inbounds nuw i8, ptr %6, i64 %.offs
  store i8 %39, ptr %42, align 2, !tbaa !55
  br label %43

43:                                               ; preds = %43, %40
  %.1.pn = phi i32 [ %.189, %40 ], [ %.2, %43 ]
  %.pn = add i32 %12, %.1.pn
  %.2 = and i32 %.pn, %8
  %44 = icmp ugt i32 %.2, %.173
  br i1 %44, label %43, label %45, !llvm.loop !94

45:                                               ; preds = %43
  %46 = add nuw nsw i32 %.06688, 1
  %exitcond93.not = icmp eq i32 %46, %37
  br i1 %exitcond93.not, label %._crit_edge, label %40, !llvm.loop !95

._crit_edge:                                      ; preds = %45, %.preheader83
  %.1.lcssa = phi i32 [ %.06491, %.preheader83 ], [ %.2, %45 ]
  %indvars.iv.next95 = add nuw nsw i64 %indvars.iv94, 1
  %exitcond98.not = icmp eq i64 %indvars.iv.next95, %wide.trip.count
  br i1 %exitcond98.not, label %47, label %.preheader83, !llvm.loop !96

47:                                               ; preds = %._crit_edge
  %48 = trunc nuw nsw i32 %3 to i16
  %.not79 = icmp eq i32 %.1.lcssa, 0
  br i1 %.not79, label %.preheader.preheader, label %67

.preheader.preheader:                             ; preds = %47
  %wide.trip.count102 = zext nneg i32 %7 to i64
  br label %.preheader

.preheader:                                       ; preds = %.preheader.preheader, %.preheader
  %indvars.iv99 = phi i64 [ 0, %.preheader.preheader ], [ %indvars.iv.next100, %.preheader ]
  %49 = getelementptr inbounds nuw %struct.FSE_decode_t, ptr %6, i64 %indvars.iv99
  %50 = getelementptr inbounds nuw i8, ptr %49, i64 2
  %51 = load i8, ptr %50, align 2, !tbaa !55
  %52 = zext i8 %51 to i64
  %53 = getelementptr inbounds nuw [256 x i16], ptr %5, i64 0, i64 %52
  %54 = load i16, ptr %53, align 2, !tbaa !58
  %55 = add i16 %54, 1
  store i16 %55, ptr %53, align 2, !tbaa !58
  %56 = zext i16 %54 to i32
  %57 = tail call range(i32 0, 33) i32 @llvm.ctlz.i32(i32 %56, i1 true)
  %58 = xor i32 %57, 31
  %59 = sub nsw i32 %3, %58
  %60 = trunc nsw i32 %59 to i8
  %61 = getelementptr inbounds nuw i8, ptr %49, i64 3
  store i8 %60, ptr %61, align 1, !tbaa !56
  %62 = and i32 %59, 255
  %63 = shl i32 %56, %62
  %64 = sub i32 %63, %7
  %65 = trunc i32 %64 to i16
  store i16 %65, ptr %49, align 2, !tbaa !53
  %indvars.iv.next100 = add nuw nsw i64 %indvars.iv99, 1
  %exitcond103.not = icmp eq i64 %indvars.iv.next100, %wide.trip.count102
  br i1 %exitcond103.not, label %66, label %.preheader, !llvm.loop !97

66:                                               ; preds = %.preheader
  store i16 %48, ptr %0, align 4
  %.sroa.4.0..sroa_idx = getelementptr inbounds nuw i8, ptr %0, i64 2
  store i16 %.271, ptr %.sroa.4.0..sroa_idx, align 2
  br label %67

67:                                               ; preds = %47, %14, %4, %66
  %.0 = phi i64 [ 0, %66 ], [ -46, %4 ], [ -44, %14 ], [ -1, %47 ]
  call void @llvm.lifetime.end.p0(i64 512, ptr nonnull %5) #22
  ret i64 %.0
}